Certificate:
    Data:
        Version: 3 (0x2)
        Serial Number: 1 (0x1)
        Signature Algorithm: sha1WithRSAEncryption
        Issuer: C=BA, ST=RS, O=Elektrotehnicki fakultet, OU=Kriptografija i racunarska zastita, CN=CA/emailAddress=ca@mail.com
        Validity
            Not Before: Feb  7 10:05:40 2021 GMT
            Not After : Feb  7 10:05:40 2022 GMT
        Subject: C=BA, ST=RS, O=Elektrotehnicki fakultet, OU=Kriptografija i racunarska zastita, CN=CA/emailAddress=ca@mail.com
        Subject Public Key Info:
            Public Key Algorithm: rsaEncryption
                RSA Public-Key: (4096 bit)
                Modulus:
                    00:f8:c5:a0:04:58:58:e9:50:2b:28:a9:9e:bc:ae:
                    f8:cf:b8:9f:2d:fa:9e:c9:62:04:82:56:2b:1a:ee:
                    b3:dd:4c:31:fb:cd:0e:8c:75:58:a3:57:b6:9a:66:
                    53:09:b6:0d:c4:db:30:51:f2:6d:45:33:02:25:63:
                    e3:07:d7:39:33:74:3b:48:83:db:30:64:7a:0f:58:
                    56:27:46:e2:d3:6e:56:86:53:27:d4:49:d0:7b:08:
                    1c:08:9e:1f:29:43:d8:38:2c:a5:a1:fc:21:ee:f9:
                    94:de:4d:69:7a:98:b4:59:19:64:c3:ff:34:c1:2e:
                    73:e2:72:d2:2a:21:36:12:6e:3c:97:53:32:b3:6c:
                    af:a0:52:36:5b:72:ed:38:76:89:de:33:3c:05:9d:
                    e1:19:41:00:47:fd:ce:10:c9:b8:ba:b6:cd:c9:63:
                    09:5a:22:58:f0:f2:11:f6:33:27:ca:59:87:1c:e3:
                    fe:64:79:df:2a:58:cf:17:9e:70:17:41:9e:9d:d6:
                    ea:06:83:3b:a7:3b:74:e4:61:9e:91:f1:ea:af:14:
                    57:3e:16:13:62:56:15:e6:16:17:c0:b5:72:d4:b1:
                    28:2c:49:70:b6:7f:0e:a1:81:0e:1e:d9:df:cf:0c:
                    a4:e6:0b:7b:94:cb:a4:73:ea:3a:67:c9:5f:d2:73:
                    fe:22:25:5e:49:cc:e1:83:eb:ca:27:9c:8f:d4:17:
                    e0:0e:b5:83:33:8f:0f:df:d8:d7:98:15:79:8a:bf:
                    84:dc:d5:2d:d8:48:b4:00:be:3e:7a:14:fd:27:f2:
                    3e:de:81:47:2a:a9:54:8c:7b:41:6a:14:67:f9:1a:
                    eb:85:4b:71:8a:79:bf:f9:d4:11:14:ed:6b:6c:ef:
                    d9:88:aa:8c:7a:cc:32:78:78:48:8b:e5:06:fb:93:
                    ea:e8:e6:6a:f2:6b:96:dd:7a:8c:73:f6:a3:83:c3:
                    ed:aa:7b:84:28:26:53:d0:8e:c5:eb:c0:19:54:40:
                    01:cd:9f:c3:75:f4:7f:0e:76:c7:41:4d:85:22:e3:
                    c9:ed:54:56:f2:dc:f0:10:f5:a8:e8:71:5b:db:21:
                    fd:26:fa:2d:5b:23:9c:9a:10:2a:d5:27:d4:89:17:
                    ca:cd:d4:66:7f:91:55:0a:7c:15:a7:7d:81:ab:6a:
                    54:4b:8b:40:81:ef:97:51:55:05:3b:9b:23:fd:c3:
                    1c:2b:08:fb:31:e3:4b:09:f8:03:c3:91:01:29:53:
                    4c:8f:06:c1:31:f5:ae:73:37:91:f9:5b:51:f5:12:
                    74:a6:f7:c0:eb:a9:ae:9b:56:7e:47:a1:86:6b:c2:
                    c4:3a:ba:e8:42:9a:94:30:00:a2:06:d8:e0:58:46:
                    94:bb:75
                Exponent: 65537 (0x10001)
        X509v3 extensions:
            X509v3 Basic Constraints: 
                CA:FALSE
            X509v3 Extended Key Usage: 
                TLS Web Client Authentication
            Netscape Comment: 
                OpenSSL Generated Certificate
            X509v3 Subject Key Identifier: 
                34:7D:75:10:81:90:12:44:0F:2D:62:EA:8E:B1:AA:0B:32:B6:93:E6
            X509v3 Authority Key Identifier: 
                keyid:34:7D:75:10:81:90:12:44:0F:2D:62:EA:8E:B1:AA:0B:32:B6:93:E6

            X509v3 CRL Distribution Points: 

                Full Name:
                  URI:http://192.168.21.89/rootcrl.pem

    Signature Algorithm: sha1WithRSAEncryption
         d8:83:ad:62:11:f6:a9:1d:d6:36:f4:81:77:fa:5b:48:dc:27:
         48:d7:ef:d7:60:4d:54:cd:68:61:e7:0e:be:9e:14:cb:77:79:
         0f:ba:4d:c9:11:80:83:52:cb:a1:44:d7:21:71:07:d3:50:75:
         9f:6a:f7:e5:ea:20:17:a6:fc:9e:f7:36:5c:f8:75:c5:af:ca:
         6a:c9:ec:b6:5f:4c:2f:80:b1:f1:96:02:63:3c:60:6d:41:76:
         55:5d:e1:f6:d7:8c:55:5e:c8:b2:f6:85:22:89:b1:70:d0:b3:
         a5:4e:23:9e:4e:4e:6e:e2:8c:69:66:7f:5b:eb:bd:43:30:95:
         b1:3f:90:60:c4:e7:84:8b:38:43:14:00:41:3a:de:4f:fb:9a:
         4b:f1:29:eb:db:07:1f:fd:da:a4:7c:d4:26:3f:37:16:cb:c2:
         06:7c:52:6d:0f:cb:25:47:c7:08:61:09:bf:01:14:15:8c:7e:
         15:dc:1c:ef:ad:17:0f:0a:fc:d3:c4:1f:04:9c:4f:93:42:b4:
         90:6d:46:aa:8d:70:d2:ca:f1:70:9a:fd:64:5b:0f:3d:1b:04:
         35:c9:a7:1f:61:82:59:79:17:c2:68:fb:0e:07:7d:66:61:01:
         c4:8d:aa:c2:0f:c7:59:6b:2b:8c:1d:ec:85:ed:1d:d5:97:56:
         92:a4:9c:c8:65:a5:34:17:93:38:c0:63:ea:0e:2f:08:83:f9:
         ca:eb:0c:1c:4d:9e:e2:3b:d1:16:86:5a:ec:b5:fe:03:79:17:
         02:4b:47:32:06:d1:bb:2d:bc:ba:89:bb:b5:a9:af:37:ea:61:
         51:d7:e8:b7:00:b9:29:95:d6:d3:85:5d:01:ef:57:9b:84:ee:
         10:ce:b6:71:82:56:4a:22:b4:eb:30:15:b5:b1:a1:9f:10:80:
         b3:4d:0a:19:8a:38:bc:7d:4f:ee:95:95:84:ba:79:38:ae:b8:
         7b:7e:63:32:4b:72:13:ae:44:32:ee:68:86:a8:95:82:78:a4:
         77:fc:d6:62:40:7a:4d:d4:0a:c5:75:0f:da:1b:12:6c:6c:4c:
         0c:ce:07:14:da:2e:2e:6b:83:67:b9:63:56:f2:f5:c7:1c:1b:
         c8:6d:3a:97:f6:bc:31:9c:70:12:94:84:51:9f:ce:52:ab:04:
         3d:87:ab:8b:72:d3:c6:4d:ec:7a:75:86:8f:6e:90:db:16:2f:
         f6:26:97:67:59:65:6d:07:6b:2d:5d:70:51:34:57:54:8c:11:
         23:58:10:cb:33:37:3a:6c:42:6b:88:aa:d4:36:a0:0d:db:8f:
         11:1e:14:c7:1d:43:9e:57:c0:f5:ea:fd:96:88:86:69:dc:c4:
         2e:d2:19:cb:e0:eb:59:b5
-----BEGIN CERTIFICATE-----
MIIGaDCCBFCgAwIBAgIBATANBgkqhkiG9w0BAQUFADCBkzELMAkGA1UEBhMCQkEx
CzAJBgNVBAgTAlJTMSEwHwYDVQQKExhFbGVrdHJvdGVobmlja2kgZmFrdWx0ZXQx
KzApBgNVBAsTIktyaXB0b2dyYWZpamEgaSByYWN1bmFyc2thIHphc3RpdGExCzAJ
BgNVBAMTAkNBMRowGAYJKoZIhvcNAQkBFgtjYUBtYWlsLmNvbTAeFw0yMTAyMDcx
MDA1NDBaFw0yMjAyMDcxMDA1NDBaMIGTMQswCQYDVQQGEwJCQTELMAkGA1UECBMC
UlMxITAfBgNVBAoTGEVsZWt0cm90ZWhuaWNraSBmYWt1bHRldDErMCkGA1UECxMi
S3JpcHRvZ3JhZmlqYSBpIHJhY3VuYXJza2EgemFzdGl0YTELMAkGA1UEAxMCQ0Ex
GjAYBgkqhkiG9w0BCQEWC2NhQG1haWwuY29tMIICIjANBgkqhkiG9w0BAQEFAAOC
Ag8AMIICCgKCAgEA+MWgBFhY6VArKKmevK74z7ifLfqeyWIEglYrGu6z3Uwx+80O
jHVYo1e2mmZTCbYNxNswUfJtRTMCJWPjB9c5M3Q7SIPbMGR6D1hWJ0bi025WhlMn
1EnQewgcCJ4fKUPYOCylofwh7vmU3k1pepi0WRlkw/80wS5z4nLSKiE2Em48l1My
s2yvoFI2W3LtOHaJ3jM8BZ3hGUEAR/3OEMm4urbNyWMJWiJY8PIR9jMnylmHHOP+
ZHnfKljPF55wF0GendbqBoM7pzt05GGekfHqrxRXPhYTYlYV5hYXwLVy1LEoLElw
tn8OoYEOHtnfzwyk5gt7lMukc+o6Z8lf0nP+IiVeSczhg+vKJ5yP1BfgDrWDM48P
39jXmBV5ir+E3NUt2Ei0AL4+ehT9J/I+3oFHKqlUjHtBahRn+RrrhUtxinm/+dQR
FO1rbO/ZiKqMeswyeHhIi+UG+5Pq6OZq8muW3XqMc/ajg8PtqnuEKCZT0I7F68AZ
VEABzZ/DdfR/DnbHQU2FIuPJ7VRW8tzwEPWo6HFb2yH9JvotWyOcmhAq1SfUiRfK
zdRmf5FVCnwVp32Bq2pUS4tAge+XUVUFO5sj/cMcKwj7MeNLCfgDw5EBKVNMjwbB
MfWuczeR+VtR9RJ0pvfA66mum1Z+R6GGa8LEOrroQpqUMACiBtjgWEaUu3UCAwEA
AaOBxDCBwTAJBgNVHRMEAjAAMBMGA1UdJQQMMAoGCCsGAQUFBwMCMCwGCWCGSAGG
+EIBDQQfFh1PcGVuU1NMIEdlbmVyYXRlZCBDZXJ0aWZpY2F0ZTAdBgNVHQ4EFgQU
NH11EIGQEkQPLWLqjrGqCzK2k+YwHwYDVR0jBBgwFoAUNH11EIGQEkQPLWLqjrGq
CzK2k+YwMQYDVR0fBCowKDAmoCSgIoYgaHR0cDovLzE5Mi4xNjguMjEuODkvcm9v
dGNybC5wZW0wDQYJKoZIhvcNAQEFBQADggIBANiDrWIR9qkd1jb0gXf6W0jcJ0jX
79dgTVTNaGHnDr6eFMt3eQ+6TckRgINSy6FE1yFxB9NQdZ9q9+XqIBem/J73Nlz4
dcWvymrJ7LZfTC+AsfGWAmM8YG1BdlVd4fbXjFVeyLL2hSKJsXDQs6VOI55OTm7i
jGlmf1vrvUMwlbE/kGDE54SLOEMUAEE63k/7mkvxKevbBx/92qR81CY/NxbLwgZ8
Um0PyyVHxwhhCb8BFBWMfhXcHO+tFw8K/NPEHwScT5NCtJBtRqqNcNLK8XCa/WRb
Dz0bBDXJpx9hgll5F8Jo+w4HfWZhAcSNqsIPx1lrK4wd7IXtHdWXVpKknMhlpTQX
kzjAY+oOLwiD+crrDBxNnuI70RaGWuy1/gN5FwJLRzIG0bstvLqJu7WprzfqYVHX
6LcAuSmV1tOFXQHvV5uE7hDOtnGCVkoitOswFbWxoZ8QgLNNChmKOLx9T+6VlYS6
eTiuuHt+YzJLchOuRDLuaIaolYJ4pHf81mJAek3UCsV1D9obEmxsTAzOBxTaLi5r
g2e5Y1by9cccG8htOpf2vDGccBKUhFGfzlKrBD2Hq4ty08ZN7Hp1ho9ukNsWL/Ym
l2dZZW0Hay1dcFE0V1SMESNYEMszNzpsQmuIqtQ2oA3bjxEeFMcdQ55XwPXq/ZaI
hmncxC7SGcvg61m1
-----END CERTIFICATE-----
